target datalayout = "e-m:e-p270:32:32-p271:32:32-p272:64:64-i64:64-i128:128-f80:128-n8:16:32:64-S128"
target triple = "x86_64-pc-linux-gnu"

; Function Attrs: mustprogress uwtable
define linkonce_odr hidden noundef i64 @_ZNK6casadi6MXNode3nnzEx(ptr noundef nonnull align 8 dereferenceable(64) %0, i64 noundef %1) #4 comdat align 2 {
  %3 = alloca ptr, align 8
  %4 = alloca i64, align 8
  store ptr %0, ptr %3, align 8, !tbaa !49
  store i64 %1, ptr %4, align 8, !tbaa !51
  %5 = load ptr, ptr %3, align 8
  %6 = load i64, ptr %4, align 8, !tbaa !51
  %7 = load ptr, ptr %5, align 8, !tbaa !12
  %8 = getelementptr inbounds ptr, ptr %7, i64 49
  %9 = load ptr, ptr %8, align 8
  %10 = call noundef nonnull align 8 dereferenceable(8) ptr %9(ptr noundef nonnull align 8 dereferenceable(64) %5, i64 noundef %6)
  %11 = call noundef i64 @_ZNK6casadi8Sparsity3nnzEv(ptr noundef nonnull align 8 dereferenceable(8) %10)
  ret i64 %11
}

; Function Attrs: mustprogress uwtable
define noundef i32 @_ZNK6casadi7Reshape10sp_reverseEPPyS2_PxS1_(ptr noundef nonnull align 8 dereferenceable(64) %0, ptr noundef %1, ptr noundef %2, ptr noundef %3, ptr noundef %4) unnamed_addr #4 align 2 {
  %6 = alloca ptr, align 8
  %7 = alloca ptr, align 8
  %8 = alloca ptr, align 8
  %9 = alloca ptr, align 8
  %10 = alloca ptr, align 8
  store ptr %0, ptr %6, align 8, !tbaa !3
  store ptr %1, ptr %7, align 8, !tbaa !47
  store ptr %2, ptr %8, align 8, !tbaa !47
  store ptr %3, ptr %9, align 8, !tbaa !39
  store ptr %4, ptr %10, align 8, !tbaa !39
  %11 = load ptr, ptr %6, align 8
  %12 = load ptr, ptr %7, align 8, !tbaa !47
  %13 = getelementptr inbounds ptr, ptr %12, i64 0
  %14 = load ptr, ptr %13, align 8, !tbaa !39
  %15 = load ptr, ptr %8, align 8, !tbaa !47
  %16 = getelementptr inbounds ptr, ptr %15, i64 0
  %17 = load ptr, ptr %16, align 8, !tbaa !39
  %18 = call noundef i64 @_ZNK6casadi6MXNode3nnzEx(ptr noundef nonnull align 8 dereferenceable(64) %11, i64 noundef 0)
  call void @_ZN6casadi6MXNode8copy_revEPyS1_x(ptr noundef %14, ptr noundef %17, i64 noundef %18)
  ret i32 0
}