; Function Attrs: mustprogress uwtable
define noundef i32 @_ZNK6casadi7Reshape10sp_reverseEPPyS2_PxS1_(ptr noundef nonnull align 8 dereferenceable(64) %0, ptr noundef readonly captures(none) %1, ptr noundef readonly captures(none) %2, ptr readnone captures(none) %3, ptr readnone captures(none) %4) unnamed_addr #3 align 2 {
  %6 = load ptr, ptr %1, align 8, !tbaa !33
  %7 = load ptr, ptr %2, align 8, !tbaa !33
  %8 = load ptr, ptr %0, align 8, !tbaa !3
  %9 = getelementptr inbounds nuw i8, ptr %8, i64 392
  %10 = load ptr, ptr %9, align 8
  %11 = tail call noundef nonnull align 8 dereferenceable(8) ptr %10(ptr noundef nonnull align 8 dereferenceable(64) %0, i64 noundef 0)
  %12 = tail call noundef i64 @_ZNK6casadi8Sparsity3nnzEv(ptr noundef nonnull align 8 dereferenceable(8) %11)
  tail call void @_ZN6casadi6MXNode8copy_revEPyS1_x(ptr noundef %6, ptr noundef %7, i64 noundef %12)
  ret i32 0
}